target datalayout = "e-m:e-p270:32:32-p271:32:32-p272:64:64-i64:64-i128:128-f80:128-n8:16:32:64-S128"
target triple = "x86_64-unknown-linux-gnu"

%"struct.icu_75::FormattedStringBuilder::Field" = type { i8 }
%"class.icu_75::FormattedValueStringBuilderImpl" = type <{ %"class.icu_75::FormattedValue", %"class.icu_75::FormattedStringBuilder", %"struct.icu_75::FormattedStringBuilder::Field", [7 x i8], %"class.icu_75::MaybeStackArray.2", i32, [4 x i8] }>
%"class.icu_75::FormattedValue" = type { ptr }
%"class.icu_75::FormattedStringBuilder" = type { i8, %"union.icu_75::FormattedStringBuilder::ValueOrHeapArray", %"union.icu_75::FormattedStringBuilder::ValueOrHeapArray.0", i32, i32 }
%"union.icu_75::FormattedStringBuilder::ValueOrHeapArray" = type { %struct.anon, [64 x i8] }
%struct.anon = type { ptr, i32 }
%"union.icu_75::FormattedStringBuilder::ValueOrHeapArray.0" = type { %struct.anon.1, [24 x i8] }
%struct.anon.1 = type { ptr, i32 }
%"class.icu_75::MaybeStackArray.2" = type { ptr, i32, i8, [8 x %"struct.icu_75::SpanInfo"] }
%"struct.icu_75::SpanInfo" = type { i32, i32, i32, i32 }

; Function Attrs: mustprogress nounwind uwtable
define linkonce_odr noundef ptr @_ZNK6icu_7522FormattedStringBuilder10getCharPtrEv(ptr noundef nonnull align 8 dereferenceable(136) %this) #0 comdat align 2 {
entry:
  %this.addr = alloca ptr, align 8
  store ptr %this, ptr %this.addr, align 8
  %this1 = load ptr, ptr %this.addr, align 8
  %fUsingHeap = getelementptr inbounds %"class.icu_75::FormattedStringBuilder", ptr %this1, i32 0, i32 0
  %0 = load i8, ptr %fUsingHeap, align 8
  %tobool = trunc i8 %0 to i1
  br i1 %tobool, label %cond.true, label %cond.false

cond.true:                                        ; preds = %entry
  %fChars = getelementptr inbounds %"class.icu_75::FormattedStringBuilder", ptr %this1, i32 0, i32 1
  %ptr = getelementptr inbounds %struct.anon, ptr %fChars, i32 0, i32 0
  %1 = load ptr, ptr %ptr, align 8
  br label %cond.end

cond.false:                                       ; preds = %entry
  %fChars2 = getelementptr inbounds %"class.icu_75::FormattedStringBuilder", ptr %this1, i32 0, i32 1
  %arraydecay = getelementptr inbounds [40 x i16], ptr %fChars2, i64 0, i64 0
  br label %cond.end

cond.end:                                         ; preds = %cond.false, %cond.true
  %cond = phi ptr [ %1, %cond.true ], [ %arraydecay, %cond.false ]
  ret ptr %cond
}

; Function Attrs: mustprogress uwtable
define noundef i32 @_ZNK6icu_7531FormattedValueStringBuilderImpl8trimBackEi(ptr noundef nonnull align 8 dereferenceable(300) %this, i32 noundef %limit) #1 align 2 {
entry:
  %this.addr = alloca ptr, align 8
  %limit.addr = alloca i32, align 4
  store ptr %this, ptr %this.addr, align 8
  store i32 %limit, ptr %limit.addr, align 4
  %this1 = load ptr, ptr %this.addr, align 8
  %call = call noundef ptr @_ZN6icu_757unisets3getENS0_3KeyE(i32 noundef 1)
  %fString = getelementptr inbounds %"class.icu_75::FormattedValueStringBuilderImpl", ptr %this1, i32 0, i32 1
  %call2 = call noundef ptr @_ZNK6icu_7522FormattedStringBuilder10getCharPtrEv(ptr noundef nonnull align 8 dereferenceable(136) %fString)
  %fString3 = getelementptr inbounds %"class.icu_75::FormattedValueStringBuilderImpl", ptr %this1, i32 0, i32 1
  %fZero = getelementptr inbounds %"class.icu_75::FormattedStringBuilder", ptr %fString3, i32 0, i32 3
  %0 = load i32, ptr %fZero, align 8
  %idx.ext = sext i32 %0 to i64
  %add.ptr = getelementptr inbounds i16, ptr %call2, i64 %idx.ext
  %1 = load i32, ptr %limit.addr, align 4
  %call4 = call noundef i32 @_ZNK6icu_7510UnicodeSet8spanBackEPKDsi17USetSpanCondition(ptr noundef nonnull align 8 dereferenceable(200) %call, ptr noundef %add.ptr, i32 noundef %1, i32 noundef 1)
  ret i32 %call4
}